target datalayout = "e-m:e-p270:32:32-p271:32:32-p272:64:64-i64:64-i128:128-f80:128-n8:16:32:64-S128"
target triple = "x86_64-pc-linux-gnu"

%struct.KDF_HMAC_DRBG = type { %struct.drbg_hmac_st, ptr, ptr, ptr, i64, i64, i32 }
%struct.drbg_hmac_st = type { ptr, %struct.PROV_DIGEST, i64, [64 x i8], [64 x i8] }
%struct.PROV_DIGEST = type { ptr, ptr, ptr }

@.str = private unnamed_addr constant [57 x i8] c"../openssl/providers/implementations/kdfs/hmacdrbg_kdf.c\00", align 1

; Function Attrs: nounwind uwtable
define internal void @hmac_drbg_kdf_reset(ptr noundef %0) #0 {
  %2 = alloca ptr, align 8
  %3 = alloca ptr, align 8
  %4 = alloca ptr, align 8
  %5 = alloca ptr, align 8
  store ptr %0, ptr %2, align 8, !tbaa !3
  call void @llvm.lifetime.start.p0(i64 8, ptr %3) #5
  %6 = load ptr, ptr %2, align 8, !tbaa !3
  store ptr %6, ptr %3, align 8, !tbaa !3
  call void @llvm.lifetime.start.p0(i64 8, ptr %4) #5
  %7 = load ptr, ptr %3, align 8, !tbaa !3
  %8 = getelementptr inbounds nuw %struct.KDF_HMAC_DRBG, ptr %7, i32 0, i32 0
  store ptr %8, ptr %4, align 8, !tbaa !22
  call void @llvm.lifetime.start.p0(i64 8, ptr %5) #5
  %9 = load ptr, ptr %3, align 8, !tbaa !3
  %10 = getelementptr inbounds nuw %struct.KDF_HMAC_DRBG, ptr %9, i32 0, i32 1
  %11 = load ptr, ptr %10, align 8, !tbaa !7
  store ptr %11, ptr %5, align 8, !tbaa !3
  %12 = load ptr, ptr %4, align 8, !tbaa !22
  %13 = getelementptr inbounds nuw %struct.drbg_hmac_st, ptr %12, i32 0, i32 0
  %14 = load ptr, ptr %13, align 8, !tbaa !24
  call void @EVP_MAC_CTX_free(ptr noundef %14)
  %15 = load ptr, ptr %4, align 8, !tbaa !22
  %16 = getelementptr inbounds nuw %struct.drbg_hmac_st, ptr %15, i32 0, i32 1
  call void @ossl_prov_digest_reset(ptr noundef %16)
  %17 = load ptr, ptr %3, align 8, !tbaa !3
  %18 = getelementptr inbounds nuw %struct.KDF_HMAC_DRBG, ptr %17, i32 0, i32 2
  %19 = load ptr, ptr %18, align 8, !tbaa !17
  %20 = load ptr, ptr %3, align 8, !tbaa !3
  %21 = getelementptr inbounds nuw %struct.KDF_HMAC_DRBG, ptr %20, i32 0, i32 4
  %22 = load i64, ptr %21, align 8, !tbaa !18
  call void @CRYPTO_clear_free(ptr noundef %19, i64 noundef %22, ptr noundef @.str, i32 noundef 64)
  %23 = load ptr, ptr %3, align 8, !tbaa !3
  %24 = getelementptr inbounds nuw %struct.KDF_HMAC_DRBG, ptr %23, i32 0, i32 3
  %25 = load ptr, ptr %24, align 8, !tbaa !19
  %26 = load ptr, ptr %3, align 8, !tbaa !3
  %27 = getelementptr inbounds nuw %struct.KDF_HMAC_DRBG, ptr %26, i32 0, i32 5
  %28 = load i64, ptr %27, align 8, !tbaa !20
  call void @CRYPTO_clear_free(ptr noundef %25, i64 noundef %28, ptr noundef @.str, i32 noundef 65)
  %29 = load ptr, ptr %3, align 8, !tbaa !3
  call void @OPENSSL_cleanse(ptr noundef %29, i64 noundef 216)
  %30 = load ptr, ptr %5, align 8, !tbaa !3
  %31 = load ptr, ptr %3, align 8, !tbaa !3
  %32 = getelementptr inbounds nuw %struct.KDF_HMAC_DRBG, ptr %31, i32 0, i32 1
  store ptr %30, ptr %32, align 8, !tbaa !7
  call void @llvm.lifetime.end.p0(i64 8, ptr %5) #5
  call void @llvm.lifetime.end.p0(i64 8, ptr %4) #5
  call void @llvm.lifetime.end.p0(i64 8, ptr %3) #5
  ret void
}