; Function Attrs: nounwind uwtable
define internal void @hmac_drbg_kdf_reset(ptr noundef %0) #0 {
  %2 = getelementptr inbounds nuw i8, ptr %0, i64 168
  %3 = load ptr, ptr %2, align 8, !tbaa !3
  %4 = load ptr, ptr %0, align 8, !tbaa !16
  tail call void @EVP_MAC_CTX_free(ptr noundef %4) #5
  %5 = getelementptr inbounds nuw i8, ptr %0, i64 8
  tail call void @ossl_prov_digest_reset(ptr noundef nonnull %5) #5
  %6 = getelementptr inbounds nuw i8, ptr %0, i64 176
  %7 = load ptr, ptr %6, align 8, !tbaa !17
  %8 = getelementptr inbounds nuw i8, ptr %0, i64 192
  %9 = load i64, ptr %8, align 8, !tbaa !18
  tail call void @CRYPTO_clear_free(ptr noundef %7, i64 noundef %9, ptr noundef nonnull @.str, i32 noundef 64) #5
  %10 = getelementptr inbounds nuw i8, ptr %0, i64 184
  %11 = load ptr, ptr %10, align 8, !tbaa !19
  %12 = getelementptr inbounds nuw i8, ptr %0, i64 200
  %13 = load i64, ptr %12, align 8, !tbaa !20
  tail call void @CRYPTO_clear_free(ptr noundef %11, i64 noundef %13, ptr noundef nonnull @.str, i32 noundef 65) #5
  tail call void @OPENSSL_cleanse(ptr noundef nonnull %0, i64 noundef 216) #5
  store ptr %3, ptr %2, align 8, !tbaa !3
  ret void
}